gpasm-0.13.7 beta               src/bin/main_sipo_piso.asm3-2-2013  15:49:57           PAGE  1


LOC  OBJECT CODE     LINE SOURCE TEXT
  VALUE
 
               00001         processor       pic16f690
               00002         include         <p16f690.inc>
               00001         LIST
               00002 ; P16F690.INC  Standard Header File, Version 1.00    Microchip Technology, Inc.
               00607         LIST
               00003         include         <config.inc>
               00001 ;; gputils_make_example, Copyright 2013 Vicente Oscar Mier Vela <vomv1988@gmail.com>
               00002 ;;    This file is part of gputils_make_example.
               00003 ;;
               00004 ;;    gputils_make_example is free software: you can redistribute it and/or modify
               00005 ;;    it under the terms of the GNU General Public License as published by
               00006 ;;    the Free Software Foundation, either version 3 of the License, or
               00007 ;;    (at your option) any later version.
               00008 ;;
               00009 ;;    gputils_make_example is distributed in the hope that it will be useful,
               00010 ;;    but WITHOUT ANY WARRANTY; without even the implied warranty of
               00011 ;;    MERCHANTABILITY or FITNESS FOR A PARTICULAR PURPOSE.  See the
               00012 ;;    GNU General Public License for more details.
               00013 ;;
               00014 ;;    You should have received a copy of the GNU General Public License
               00015 ;;    along with gputils_make_example.  If not, see <http://www.gnu.org/licenses/>.
002007 0000    00016         __CONFIG ( _FCMEN_OFF & _IESO_OFF & _BOR_OFF & _CPD_OFF & _CP_OFF & _MCLRE_OFF & _PWRTE_OFF & _WDT_OFF & _INTRC_OSC_NOCLKOUT )
               00004 
               00005         extern          set_ports
               00006         extern          greet
               00007         extern          mv_rx_w
               00008         extern          mv_w_tx
               00009         extern          sipo
               00010         extern          piso
               00011         extern          loopback_sipo
               00012         extern          loopback_piso
               00013 
               00014 start   code            H'0000'
0000 2000      00015         call            set_ports
0001 2800      00016         goto            main
               00017 
               00018         udata
               00019 SIG     res             1
               00020 
               00021 prog    code
0000 00022 main:
               00023 ;;      Prompt bytes sent by Interface:
               00024 ;;      Byte    Signal                  Function
               00025 ;;      .13     Main Prompt             First prompt after greet
               00026 ;;                                      This prompt indicates that Interface is ready to
               00027 ;;                                      receive the selector signal from Control.
               00028 ;;      .0      SIPO Prompt             Interface is ready to receive the number of bytes
               00029 ;;                                      to be sent into SIPO (74595)
               00030 ;;                                      If Control sends Interface a .0 here, Interface
               00031 ;;                                      goes back to the Main Prompt.
               00032 ;;      .1      SIPO byte Prompt        Interface is ready to receive the next byte to be
               00033 ;;                                      pushed into the SIPO daisychain.
               00034 ;;      .2      PISO Prompt             Interface is ready to receive the number of bytes
               00035 ;;                                      to be sent to Control from PISO (74597)
gpasm-0.13.7 beta               src/bin/main_sipo_piso.asm3-2-2013  15:49:57           PAGE  2


LOC  OBJECT CODE     LINE SOURCE TEXT
  VALUE
 
               00036 ;;                                      If Control sends .0 to Interface, Interface goes
               00037 ;;                                      back to Main Prompt
               00038 ;;      .3      loopback PISO Prompt    Interface is ready to receive the number of bytes
               00039 ;;                                      to be sent from Control to PISO for the loopback
               00040 ;;                                      daisychain test.
               00041 ;;                                      If Control sends .0, Interface goes back to the
               00042 ;;                                      Main Prompt
               00043 ;;      .4      lo PISO byte Prompt     Interface is ready to receive a byte to push into
               00044 ;;                                      the PISO loopback daisychain.
               00045 ;;                                      After receiving such a byte, Interface sends the
               00046 ;;                                      byte popped from the other side of the daisychain
               00047 ;;                                      to Control.
               00048 ;;      .5      loopback SIPO Prompt    Interface is ready to receive the number of bytes
               00049 ;;                                      to be sent from Control to SIPO for the loopback
               00050 ;;                                      daisychain test.
               00051 ;;                                      If Control sends .0, Interface goes back to the
               00052 ;;                                      Main Prompt
               00053 ;;      .6      lo SIPO byte Prompt     Interface is ready to receive a byte to push into
               00054 ;;                                      the SIPO loopback daisychain.
               00055 ;;                                      After receiving such byte, Interface sends the byte
               00056 ;;                                      popped from the other side of the daisychain to
               00057 ;;                                      Control.
               00058 
               00059 ;;      Bytes .7 through .12 are reserved for the greet subroutine
               00060 ;;      From those, .7, .9 and .11 come from Interface
               00061 ;;      whereas .8, .10 and .12 come from Control
               00062 
               00063 ;;      Command bytes sent by Control:
               00064 ;;      Byte    Signal                  Function
               00065 ;;      .14     Select PISO function    Request the PISO prompt from Interface.
               00066 ;;                                      Presume .2 byte reply from Interface.
               00067 ;;      .15     Select SIPO funciton    Request the SIPO prompt from Interface.
               00068 ;;                                      Presume .0 byte reply from Interface.
               00069 ;;      .16     Select lo PISO function Request loopback PISO prompt from Interface.
               00070 ;;                                      Presume .3 byte reply from Interface.
               00071 ;;      .17     Select lo SIPO function Request loopback SIPO prompt from Interface.
               00072 ;;                                      Presume .5 byte reply from Interface.
               00073 ;;      .18     Return to greet         Go back to greet subroutine, before ending a
               00074 ;;                                      typical communications session.
               00075 
               00076 ;;      Argument bytes sent by Control:
               00077 ;;      Byte    Signal                  Function
               00078 ;;      x00     Exit from prompt        Exit from prompts...
               00079 ;;                                              .0      SIPO Prompt
               00080 ;;                                              .2      PISO Prompt
               00081 ;;                                              .3      loopback PISO Prompt
               00082 ;;                                              .5      loopback SIPO Prompt
               00083 ;;                                      ...into the Main Prompt.
               00084 ;;      x01-xFF Set number of bytes     Set amount of bytes when in prompts:
               00085 ;;                                              .0      SIPO Prompt
               00086 ;;                                              .2      PISO Prompt
               00087 ;;                                              .3      loopback PISO Prompt
               00088 ;;                                              .5      loopback SIPO Prompt
               00089 ;;      x00-xFF Choose byte to push     Push byte from set {0x00-0xFF} when in prompts:
gpasm-0.13.7 beta               src/bin/main_sipo_piso.asm3-2-2013  15:49:57           PAGE  3


LOC  OBJECT CODE     LINE SOURCE TEXT
  VALUE
 
               00090 ;;                                              .1      SIPO byte prompt
               00091 ;;                                              .4      lo PISO byte Prompt
               00092 ;;                                              .6      lo SIPO byte Prompt
               00093 
0000 2000      00094         call            greet
               00095 
0001 00096 prompt13:
0001 300D      00097         movlw           .13             ;;      << Main Prompt
0002 2000      00098         call            mv_w_tx
               00099 
0003 2000      00100         call            mv_rx_w
0004 0000 0000 00101         banksel         SIG
0006 0080      00102         movwf           SIG
0007 3A0E      00103         xorlw           .14
0008 1D03      00104         skpz
0009 2800      00105         goto            fi1
               00106 ;;
               00107 ;;      if SIGNAL == "Select PISO function" ; then
               00108 ;;
000A 2000      00109         call            piso            ;;      << Execute PISO session
000B 2800      00110         goto            prompt13
               00111 ;;
               00112 ;;      fi
               00113 ;;
000C 00114 fi1:
               00115 
000C 0000 0000 00116         banksel         SIG
000E 0800      00117         movfw           SIG
000F 3A0F      00118         xorlw           .15
0010 1D03      00119         skpz
0011 2800      00120         goto            fi2
               00121 ;;
               00122 ;;      if SIGNAL == "Select SIPO function" ; then
               00123 ;;
0012 2000      00124         call            sipo            ;;      << Execute SIPO session
0013 2800      00125         goto            prompt13
               00126 ;;
               00127 ;;      fi
               00128 ;;
0014 00129 fi2:
               00130 
0014 0000 0000 00131         banksel         SIG
0016 0800      00132         movfw           SIG
0017 3A10      00133         xorlw           .16
0018 1D03      00134         skpz
0019 2800      00135         goto            fi3
               00136 ;;
               00137 ;;      if SIGNAL == "Select loopback PISO function" ; then
               00138 ;;
001A 2000      00139         call            loopback_piso   ;;      << Execute loopback PISO session
001B 2800      00140         goto            prompt13
               00141 ;;
               00142 ;;      fi
               00143 ;;
gpasm-0.13.7 beta               src/bin/main_sipo_piso.asm3-2-2013  15:49:57           PAGE  4


LOC  OBJECT CODE     LINE SOURCE TEXT
  VALUE
 
001C 00144 fi3:
               00145 
001C 0000 0000 00146         banksel         SIG
001E 0800      00147         movfw           SIG
001F 3A11      00148         xorlw           .17
0020 1D03      00149         skpz
0021 2800      00150         goto            fi4
               00151 ;;
               00152 ;;      if SIGNAL == "Select loopback SIPO function" ; then
               00153 ;;
0022 2000      00154         call            loopback_sipo   ;;      << Execute looback PISO session
0023 2800      00155         goto            prompt13
               00156 ;;
               00157 ;;      fi
               00158 ;;
0024 00159 fi4:
               00160 
0024 0000 0000 00161         banksel         SIG
0026 0800      00162         movfw           SIG
0027 3A12      00163         xorlw           .18
0028 1903      00164         skpnz
               00165 ;;
               00166 ;;      if SIGNAL == "Return to greet" ; then
               00167 ;;
0029 2800      00168         goto            main            ;;      << Go back to the start
               00169 ;;
               00170 ;;      fi
               00171 ;;
               00172 
002A 30FF      00173         movlw           .255            ;;      << Send "Command not found" to Control
002B 2000      00174         call            mv_w_tx
               00175 
002C 2800      00176         goto            prompt13
               00177 
002D 00178 aa:
002D 2800      00179         goto            aa
gpasm-0.13.7 beta               src/bin/main_sipo_piso.asm3-2-2013  15:49:57           PAGE  5


SYMBOL TABLE
  LABEL                             VALUE 

ABDEN                             00000000
ABDOVF                            00000007
ADCON0                            0000001F
ADCON1                            0000009F
ADCS0                             00000004
ADCS1                             00000005
ADCS2                             00000006
ADDEN                             00000003
ADFM                              00000007
ADIE                              00000006
ADIF                              00000006
ADON                              00000000
ADRESH                            0000001E
ADRESL                            0000009E
ANS0                              00000000
ANS1                              00000001
ANS10                             00000002
ANS11                             00000003
ANS2                              00000002
ANS3                              00000003
ANS4                              00000004
ANS5                              00000005
ANS6                              00000006
ANS7                              00000007
ANS8                              00000000
ANS9                              00000001
ANSEL                             0000011E
ANSELH                            0000011F
BAUDCTL                           0000009B
BF                                00000000
BRG0                              00000000
BRG1                              00000001
BRG10                             00000002
BRG11                             00000003
BRG12                             00000004
BRG13                             00000005
BRG14                             00000006
BRG15                             00000007
BRG16                             00000003
BRG2                              00000002
BRG3                              00000003
BRG4                              00000004
BRG5                              00000005
BRG6                              00000006
BRG7                              00000007
BRG8                              00000000
BRG9                              00000001
BRGH                              00000002
C                                 00000000
C1CH0                             00000000
C1CH1                             00000001
C1IE                              00000005
C1IF                              00000005
gpasm-0.13.7 beta               src/bin/main_sipo_piso.asm3-2-2013  15:49:57           PAGE  6


LOC  OBJECT CODE     LINE SOURCE TEXT
  VALUE
 
C1OE                              00000005
C1ON                              00000007
C1OUT                             00000006
C1POL                             00000004
C1R                               00000002
C1SEN                             00000005
C1VREN                            00000007
C2CH0                             00000000
C2CH1                             00000001
C2IE                              00000006
C2IF                              00000006
C2OE                              00000005
C2ON                              00000007
C2OUT                             00000006
C2POL                             00000004
C2R                               00000002
C2REN                             00000004
C2SYNC                            00000000
C2VREN                            00000006
CCP1CON                           00000017
CCP1IE                            00000002
CCP1IF                            00000002
CCP1M0                            00000000
CCP1M1                            00000001
CCP1M2                            00000002
CCP1M3                            00000003
CCPR1H                            00000016
CCPR1L                            00000015
CHS0                              00000002
CHS1                              00000003
CHS2                              00000004
CHS3                              00000005
CKE                               00000006
CKP                               00000004
CM1CON0                           00000119
CM2CON0                           0000011A
CM2CON1                           0000011B
CREN                              00000004
CSRC                              00000007
D                                 00000005
DATA_ADDRESS                      00000005
DC                                00000001
DC1B0                             00000004
DC1B1                             00000005
D_A                               00000005
ECCPAS                            0000001D
ECCPAS0                           00000004
ECCPAS1                           00000005
ECCPAS2                           00000006
ECCPASE                           00000007
EEADR                             0000010D
EEADRH                            0000010F
EECON1                            0000018C
EECON2                            0000018D
gpasm-0.13.7 beta               src/bin/main_sipo_piso.asm3-2-2013  15:49:57           PAGE  7


LOC  OBJECT CODE     LINE SOURCE TEXT
  VALUE
 
EEDAT                             0000010C
EEDATA                            0000010C
EEDATH                            0000010E
EEIE                              00000004
EEIF                              00000004
EEPGD                             00000007
F                                 00000001
FERR                              00000002
FSR                               00000004
GIE                               00000007
GO                                00000001
GO_DONE                           00000001
HTS                               00000002
I2C_DATA                          00000005
I2C_READ                          00000002
I2C_START                         00000003
I2C_STOP                          00000004
INDF                              00000000
INTCON                            0000000B
INTE                              00000004
INTEDG                            00000006
INTF                              00000001
IOC                               00000096
IOC0                              00000000
IOC1                              00000001
IOC2                              00000002
IOC3                              00000003
IOC4                              00000004
IOC5                              00000005
IOCA                              00000096
IOCA0                             00000000
IOCA1                             00000001
IOCA2                             00000002
IOCA3                             00000003
IOCA4                             00000004
IOCA5                             00000005
IOCB                              00000116
IOCB4                             00000004
IOCB5                             00000005
IOCB6                             00000006
IOCB7                             00000007
IRCF0                             00000004
IRCF1                             00000005
IRCF2                             00000006
IRP                               00000007
LTS                               00000001
MC1OUT                            00000007
MC2OUT                            00000006
MSK                               00000093
NOT_A                             00000005
NOT_ADDRESS                       00000005
NOT_BOR                           00000000
NOT_DONE                          00000001
NOT_PD                            00000003
gpasm-0.13.7 beta               src/bin/main_sipo_piso.asm3-2-2013  15:49:57           PAGE  8


LOC  OBJECT CODE     LINE SOURCE TEXT
  VALUE
 
NOT_POR                           00000001
NOT_RABPU                         00000007
NOT_T1SYNC                        00000002
NOT_TO                            00000004
NOT_W                             00000002
NOT_WRITE                         00000002
OERR                              00000001
OPTION_REG                        00000081
OSCCON                            0000008F
OSCTUNE                           00000090
OSFIE                             00000007
OSFIF                             00000007
OSTS                              00000003
P                                 00000004
P1M0                              00000006
P1M1                              00000007
PCL                               00000002
PCLATH                            0000000A
PCON                              0000008E
PDC0                              00000000
PDC1                              00000001
PDC2                              00000002
PDC3                              00000003
PDC4                              00000004
PDC5                              00000005
PDC6                              00000006
PEIE                              00000006
PIE1                              0000008C
PIE2                              0000008D
PIR1                              0000000C
PIR2                              0000000D
PORTA                             00000005
PORTB                             00000006
PORTC                             00000007
PR2                               00000092
PRSEN                             00000007
PS0                               00000000
PS1                               00000001
PS2                               00000002
PSA                               00000003
PSSAC0                            00000002
PSSAC1                            00000003
PSSBD0                            00000000
PSSBD1                            00000001
PSTRCON                           0000019D
PULSR                             00000002
PULSS                             00000003
PWM1CON                           0000001C
R                                 00000002
RABIE                             00000003
RABIF                             00000000
RCIDL                             00000006
RCIE                              00000005
RCIF                              00000005
gpasm-0.13.7 beta               src/bin/main_sipo_piso.asm3-2-2013  15:49:57           PAGE  9


LOC  OBJECT CODE     LINE SOURCE TEXT
  VALUE
 
RCREG                             0000001A
RCSTA                             00000018
RD                                00000000
READ_WRITE                        00000002
RP0                               00000005
RP1                               00000006
RX9                               00000006
RX9D                              00000000
R_W                               00000002
S                                 00000003
SBOREN                            00000004
SCKP                              00000004
SCS                               00000000
SENB                              00000003
SIG                               00000000
SMP                               00000007
SPBRG                             00000099
SPBRGH                            0000009A
SPEN                              00000007
SR0                               00000006
SR1                               00000007
SRCON                             0000019E
SREN                              00000005
SSPADD                            00000093
SSPBUF                            00000013
SSPCON                            00000014
SSPEN                             00000005
SSPIE                             00000003
SSPIF                             00000003
SSPM0                             00000000
SSPM1                             00000001
SSPM2                             00000002
SSPM3                             00000003
SSPMSK                            00000093
SSPOV                             00000006
SSPSTAT                           00000094
STATUS                            00000003
STRA                              00000000
STRB                              00000001
STRC                              00000002
STRD                              00000003
STRSYNC                           00000004
SWDTEN                            00000000
SYNC                              00000004
T0CS                              00000005
T0IE                              00000005
T0IF                              00000002
T0SE                              00000004
T1CKPS0                           00000004
T1CKPS1                           00000005
T1CON                             00000010
T1GINV                            00000007
T1GSS                             00000001
T1IE                              00000000
gpasm-0.13.7 beta               src/bin/main_sipo_piso.asm3-2-2013  15:49:57           PAGE 10


LOC  OBJECT CODE     LINE SOURCE TEXT
  VALUE
 
T1IF                              00000000
T1OSCEN                           00000003
T2CKPS0                           00000000
T2CKPS1                           00000001
T2CON                             00000012
T2IE                              00000001
T2IF                              00000001
TMR0                              00000001
TMR1CS                            00000001
TMR1GE                            00000006
TMR1H                             0000000F
TMR1IE                            00000000
TMR1IF                            00000000
TMR1L                             0000000E
TMR1ON                            00000000
TMR2                              00000011
TMR2IE                            00000001
TMR2IF                            00000001
TMR2ON                            00000002
TOUTPS0                           00000003
TOUTPS1                           00000004
TOUTPS2                           00000005
TOUTPS3                           00000006
TRISA                             00000085
TRISA0                            00000000
TRISA1                            00000001
TRISA2                            00000002
TRISA3                            00000003
TRISA4                            00000004
TRISA5                            00000005
TRISB                             00000086
TRISB4                            00000004
TRISB5                            00000005
TRISB6                            00000006
TRISB7                            00000007
TRISC                             00000087
TRISC0                            00000000
TRISC1                            00000001
TRISC2                            00000002
TRISC3                            00000003
TRISC4                            00000004
TRISC5                            00000005
TRISC6                            00000006
TRISC7                            00000007
TRMT                              00000001
TUN0                              00000000
TUN1                              00000001
TUN2                              00000002
TUN3                              00000003
TUN4                              00000004
TX9                               00000006
TX9D                              00000000
TXEN                              00000005
TXIE                              00000004
gpasm-0.13.7 beta               src/bin/main_sipo_piso.asm3-2-2013  15:49:57           PAGE 11


LOC  OBJECT CODE     LINE SOURCE TEXT
  VALUE
 
TXIF                              00000004
TXREG                             00000019
TXSTA                             00000098
UA                                00000001
ULPWUE                            00000005
VCFG                              00000006
VP6EN                             00000004
VR0                               00000000
VR1                               00000001
VR2                               00000002
VR3                               00000003
VRCON                             00000118
VRR                               00000005
W                                 00000000
WCOL                              00000007
WDTCON                            00000097
WDTPS0                            00000001
WDTPS1                            00000002
WDTPS2                            00000003
WDTPS3                            00000004
WPU                               00000095
WPUA                              00000095
WPUA0                             00000000
WPUA1                             00000001
WPUA2                             00000002
WPUA4                             00000004
WPUA5                             00000005
WPUB                              00000115
WPUB4                             00000004
WPUB5                             00000005
WPUB6                             00000006
WPUB7                             00000007
WR                                00000001
WREN                              00000002
WRERR                             00000003
WUE                               00000001
Z                                 00000002
_BOR_NSLEEP                       00003EFF
_BOR_OFF                          00003CFF
_BOR_ON                           00003FFF
_BOR_SBODEN                       00003DFF
_CPD_OFF                          00003FFF
_CPD_ON                           00003F7F
_CP_OFF                           00003FFF
_CP_ON                            00003FBF
_EC_OSC                           00003FFB
_EXTRC                            00003FFF
_EXTRCIO                          00003FFE
_EXTRC_OSC_CLKOUT                 00003FFF
_EXTRC_OSC_NOCLKOUT               00003FFE
_FCMEN_OFF                        000037FF
_FCMEN_ON                         00003FFF
_HS_OSC                           00003FFA
_IESO_OFF                         00003BFF
gpasm-0.13.7 beta               src/bin/main_sipo_piso.asm3-2-2013  15:49:57           PAGE 12


LOC  OBJECT CODE     LINE SOURCE TEXT
  VALUE
 
_IESO_ON                          00003FFF
_INTOSC                           00003FFD
_INTOSCIO                         00003FFC
_INTRC_OSC_CLKOUT                 00003FFD
_INTRC_OSC_NOCLKOUT               00003FFC
_LP_OSC                           00003FF8
_MCLRE_OFF                        00003FDF
_MCLRE_ON                         00003FFF
_PWRTE_OFF                        00003FFF
_PWRTE_ON                         00003FEF
_WDT_OFF                          00003FF7
_WDT_ON                           00003FFF
_XT_OSC                           00003FF9
__16F690                          00000001
aa                                0000002D
fi1                               0000000C
fi2                               00000014
fi3                               0000001C
fi4                               00000024
greet                             00000000
loopback_piso                     00000000
loopback_sipo                     00000000
main                              00000000
mv_rx_w                           00000000
mv_w_tx                           00000000
piso                              00000000
prompt13                          00000001
set_ports                         00000000
sipo                              00000000


Errors   :       0
Warnings :       0 reported,       0 suppressed
Messages :       0 reported,       0 suppressed

